target datalayout = "e-m:e-p270:32:32-p271:32:32-p272:64:64-i64:64-i128:128-f80:128-n8:16:32:64-S128"
target triple = "x86_64-pc-linux-gnu"

%struct.lua_State = type { i8, i8, i8, i8, i8, i8, i8, ptr, ptr, ptr, ptr, ptr, ptr, ptr, ptr, i32, i32, i16, i16, i32, ptr, ptr, ptr, ptr, ptr }

@_ZL9statnames = internal constant [5 x ptr] [ptr @.str.3, ptr @.str.10, ptr @.str.11, ptr @.str.12, ptr @.str.12], align 16
@.str.13 = private unnamed_addr constant [27 x i8] c"cannot resume %s coroutine\00", align 1
@.str.14 = private unnamed_addr constant [29 x i8] c"too many arguments to resume\00", align 1
@.str.15 = private unnamed_addr constant [27 x i8] c"too many results to resume\00", align 1

; Function Attrs: mustprogress uwtable
define internal noundef i32 @_ZL9auxresumeP9lua_StateS0_i(ptr noundef %0, ptr noundef %1, i32 noundef %2) #0 {
  %4 = alloca i32, align 4
  %5 = alloca ptr, align 8
  %6 = alloca ptr, align 8
  %7 = alloca i32, align 4
  %8 = alloca i32, align 4
  %9 = alloca i32, align 4
  %10 = alloca i32, align 4
  store ptr %0, ptr %5, align 8
  store ptr %1, ptr %6, align 8
  store i32 %2, ptr %7, align 4
  %11 = load ptr, ptr %6, align 8
  %12 = getelementptr inbounds %struct.lua_State, ptr %11, i32 0, i32 3
  %13 = load i8, ptr %12, align 1
  %14 = zext i8 %13 to i32
  %15 = icmp ne i32 %14, 1
  br i1 %15, label %16, label %30

16:                                               ; preds = %3
  %17 = load ptr, ptr %5, align 8
  %18 = load ptr, ptr %6, align 8
  %19 = call noundef i32 @_Z12lua_costatusP9lua_StateS0_(ptr noundef %17, ptr noundef %18)
  store i32 %19, ptr %8, align 4
  %20 = load i32, ptr %8, align 4
  %21 = icmp ne i32 %20, 1
  br i1 %21, label %22, label %29

22:                                               ; preds = %16
  %23 = load ptr, ptr %5, align 8
  %24 = load i32, ptr %8, align 4
  %25 = sext i32 %24 to i64
  %26 = getelementptr inbounds [5 x ptr], ptr @_ZL9statnames, i64 0, i64 %25
  %27 = load ptr, ptr %26, align 8
  %28 = call noundef ptr (ptr, ptr, ...) @_Z16lua_pushfstringLP9lua_StatePKcz(ptr noundef %23, ptr noundef @.str.13, ptr noundef %27)
  store i32 -1, ptr %4, align 4
  br label %100

29:                                               ; preds = %16
  br label %30

30:                                               ; preds = %29, %3
  %31 = load i32, ptr %7, align 4
  %32 = icmp ne i32 %31, 0
  br i1 %32, label %33, label %44

33:                                               ; preds = %30
  %34 = load ptr, ptr %6, align 8
  %35 = load i32, ptr %7, align 4
  %36 = call noundef i32 @_Z14lua_checkstackP9lua_Statei(ptr noundef %34, i32 noundef %35)
  %37 = icmp ne i32 %36, 0
  br i1 %37, label %40, label %38

38:                                               ; preds = %33
  %39 = load ptr, ptr %5, align 8
  call void (ptr, ptr, ...) @_Z11luaL_errorLP9lua_StatePKcz(ptr noundef %39, ptr noundef @.str.14) #3
  unreachable

40:                                               ; preds = %33
  %41 = load ptr, ptr %5, align 8
  %42 = load ptr, ptr %6, align 8
  %43 = load i32, ptr %7, align 4
  call void @_Z9lua_xmoveP9lua_StateS0_i(ptr noundef %41, ptr noundef %42, i32 noundef %43)
  br label %44

44:                                               ; preds = %40, %30
  %45 = load ptr, ptr %5, align 8
  %46 = getelementptr inbounds %struct.lua_State, ptr %45, i32 0, i32 6
  %47 = load i8, ptr %46, align 2
  %48 = trunc i8 %47 to i1
  %49 = load ptr, ptr %6, align 8
  %50 = getelementptr inbounds %struct.lua_State, ptr %49, i32 0, i32 6
  %51 = zext i1 %48 to i8
  store i8 %51, ptr %50, align 2
  %52 = load ptr, ptr %6, align 8
  %53 = load ptr, ptr %5, align 8
  %54 = load i32, ptr %7, align 4
  %55 = call noundef i32 @_Z10lua_resumeP9lua_StateS0_i(ptr noundef %52, ptr noundef %53, i32 noundef %54)
  store i32 %55, ptr %9, align 4
  %56 = load i32, ptr %9, align 4
  %57 = icmp eq i32 %56, 0
  br i1 %57, label %61, label %58

58:                                               ; preds = %44
  %59 = load i32, ptr %9, align 4
  %60 = icmp eq i32 %59, 1
  br i1 %60, label %61, label %93

61:                                               ; preds = %58, %44
  %62 = load ptr, ptr %6, align 8
  %63 = getelementptr inbounds %struct.lua_State, ptr %62, i32 0, i32 7
  %64 = load ptr, ptr %63, align 8
  %65 = load ptr, ptr %6, align 8
  %66 = getelementptr inbounds %struct.lua_State, ptr %65, i32 0, i32 8
  %67 = load ptr, ptr %66, align 8
  %68 = ptrtoint ptr %64 to i64
  %69 = ptrtoint ptr %67 to i64
  %70 = sub i64 %68, %69
  %71 = sdiv exact i64 %70, 16
  %72 = trunc i64 %71 to i32
  store i32 %72, ptr %10, align 4
  %73 = load i32, ptr %10, align 4
  %74 = icmp ne i32 %73, 0
  br i1 %74, label %75, label %91

75:                                               ; preds = %61
  %76 = load i32, ptr %10, align 4
  %77 = add nsw i32 %76, 1
  %78 = icmp sgt i32 %77, 20
  br i1 %78, label %79, label %87

79:                                               ; preds = %75
  %80 = load ptr, ptr %5, align 8
  %81 = load i32, ptr %10, align 4
  %82 = add nsw i32 %81, 1
  %83 = call noundef i32 @_Z14lua_checkstackP9lua_Statei(ptr noundef %80, i32 noundef %82)
  %84 = icmp ne i32 %83, 0
  br i1 %84, label %87, label %85

85:                                               ; preds = %79
  %86 = load ptr, ptr %5, align 8
  call void (ptr, ptr, ...) @_Z11luaL_errorLP9lua_StatePKcz(ptr noundef %86, ptr noundef @.str.15) #3
  unreachable

87:                                               ; preds = %79, %75
  %88 = load ptr, ptr %6, align 8
  %89 = load ptr, ptr %5, align 8
  %90 = load i32, ptr %10, align 4
  call void @_Z9lua_xmoveP9lua_StateS0_i(ptr noundef %88, ptr noundef %89, i32 noundef %90)
  br label %91

91:                                               ; preds = %87, %61
  %92 = load i32, ptr %10, align 4
  store i32 %92, ptr %4, align 4
  br label %100

93:                                               ; preds = %58
  %94 = load i32, ptr %9, align 4
  %95 = icmp eq i32 %94, 6
  br i1 %95, label %96, label %97

96:                                               ; preds = %93
  store i32 -2, ptr %4, align 4
  br label %100

97:                                               ; preds = %93
  %98 = load ptr, ptr %6, align 8
  %99 = load ptr, ptr %5, align 8
  call void @_Z9lua_xmoveP9lua_StateS0_i(ptr noundef %98, ptr noundef %99, i32 noundef 1)
  store i32 -1, ptr %4, align 4
  br label %100

100:                                              ; preds = %97, %96, %91, %22
  %101 = load i32, ptr %4, align 4
  ret i32 %101
}