; Function Attrs: mustprogress uwtable
define internal fastcc noundef i32 @_ZL9auxresumeP9lua_StateS0_i(ptr noundef %0, ptr noundef %1, i32 noundef %2) unnamed_addr #0 {
  %4 = getelementptr inbounds i8, ptr %1, i64 3
  %5 = load i8, ptr %4, align 1
  %.not = icmp eq i8 %5, 1
  br i1 %.not, label %13, label %6

6:                                                ; preds = %3
  %7 = tail call noundef i32 @_Z12lua_costatusP9lua_StateS0_(ptr noundef %0, ptr noundef nonnull %1)
  %.not40 = icmp eq i32 %7, 1
  br i1 %.not40, label %13, label %8

8:                                                ; preds = %6
  %9 = sext i32 %7 to i64
  %10 = getelementptr inbounds [5 x ptr], ptr @_ZL9statnames, i64 0, i64 %9
  %11 = load ptr, ptr %10, align 8
  %12 = tail call noundef ptr (ptr, ptr, ...) @_Z16lua_pushfstringLP9lua_StatePKcz(ptr noundef %0, ptr noundef nonnull @.str.13, ptr noundef %11)
  br label %44

13:                                               ; preds = %6, %3
  %.not41 = icmp eq i32 %2, 0
  br i1 %.not41, label %18, label %14

14:                                               ; preds = %13
  %15 = tail call noundef i32 @_Z14lua_checkstackP9lua_Statei(ptr noundef nonnull %1, i32 noundef %2)
  %.not42 = icmp eq i32 %15, 0
  br i1 %.not42, label %16, label %17

16:                                               ; preds = %14
  tail call void (ptr, ptr, ...) @_Z11luaL_errorLP9lua_StatePKcz(ptr noundef %0, ptr noundef nonnull @.str.14) #3
  unreachable

17:                                               ; preds = %14
  tail call void @_Z9lua_xmoveP9lua_StateS0_i(ptr noundef %0, ptr noundef nonnull %1, i32 noundef %2)
  br label %18

18:                                               ; preds = %17, %13
  %19 = getelementptr inbounds i8, ptr %0, i64 6
  %20 = load i8, ptr %19, align 2
  %21 = getelementptr inbounds i8, ptr %1, i64 6
  %22 = and i8 %20, 1
  store i8 %22, ptr %21, align 2
  %23 = tail call noundef i32 @_Z10lua_resumeP9lua_StateS0_i(ptr noundef nonnull %1, ptr noundef %0, i32 noundef %2)
  %or.cond = icmp ult i32 %23, 2
  br i1 %or.cond, label %24, label %41

24:                                               ; preds = %18
  %25 = getelementptr inbounds i8, ptr %1, i64 8
  %26 = load ptr, ptr %25, align 8
  %27 = getelementptr inbounds i8, ptr %1, i64 16
  %28 = load ptr, ptr %27, align 8
  %29 = ptrtoint ptr %26 to i64
  %30 = ptrtoint ptr %28 to i64
  %31 = sub i64 %29, %30
  %32 = lshr exact i64 %31, 4
  %33 = trunc i64 %32 to i32
  %.not43 = icmp eq i32 %33, 0
  br i1 %.not43, label %44, label %34

34:                                               ; preds = %24
  %35 = icmp sgt i32 %33, 19
  br i1 %35, label %36, label %40

36:                                               ; preds = %34
  %37 = add nuw nsw i32 %33, 1
  %38 = tail call noundef i32 @_Z14lua_checkstackP9lua_Statei(ptr noundef nonnull %0, i32 noundef %37)
  %.not44 = icmp eq i32 %38, 0
  br i1 %.not44, label %39, label %40

39:                                               ; preds = %36
  tail call void (ptr, ptr, ...) @_Z11luaL_errorLP9lua_StatePKcz(ptr noundef nonnull %0, ptr noundef nonnull @.str.15) #3
  unreachable

40:                                               ; preds = %36, %34
  tail call void @_Z9lua_xmoveP9lua_StateS0_i(ptr noundef nonnull %1, ptr noundef nonnull %0, i32 noundef %33)
  br label %44

41:                                               ; preds = %18
  %42 = icmp eq i32 %23, 6
  br i1 %42, label %44, label %43

43:                                               ; preds = %41
  tail call void @_Z9lua_xmoveP9lua_StateS0_i(ptr noundef nonnull %1, ptr noundef nonnull %0, i32 noundef 1)
  br label %44

44:                                               ; preds = %41, %24, %40, %43, %8
  %.0 = phi i32 [ -1, %8 ], [ -1, %43 ], [ %33, %40 ], [ 0, %24 ], [ -2, %41 ]
  ret i32 %.0
}